target datalayout = "e-m:e-p270:32:32-p271:32:32-p272:64:64-i64:64-i128:128-f80:128-n8:16:32:64-S128"
target triple = "x86_64-pc-linux-gnu"

%struct.dissector_delete_item = type { ptr, i32, %union.anon }
%union.anon = type { ptr }

@.str = private unnamed_addr constant [1 x i8] zeroinitializer, align 1
@.str.7 = private unnamed_addr constant [17 x i8] c"epan/decode_as.c\00", align 1
@__func__.decode_build_reset_list = private unnamed_addr constant [24 x i8] c"decode_build_reset_list\00", align 1
@.str.8 = private unnamed_addr constant [31 x i8] c"assertion \22not reached\22 failed\00", align 1
@dissector_reset_list = internal global ptr null, align 8

; Function Attrs: null_pointer_is_valid sspstrong uwtable
define void @decode_build_reset_list(ptr noundef %0, i32 noundef %1, ptr noundef %2, ptr noundef %3, ptr noundef %4) #0 {
  %6 = alloca ptr, align 8
  %7 = alloca i32, align 4
  %8 = alloca ptr, align 8
  %9 = alloca ptr, align 8
  %10 = alloca ptr, align 8
  %11 = alloca ptr, align 8
  %12 = alloca i64, align 8
  %13 = alloca i64, align 8
  %14 = alloca ptr, align 8
  %15 = alloca ptr, align 8
  store ptr %0, ptr %6, align 8
  store i32 %1, ptr %7, align 4
  store ptr %2, ptr %8, align 8
  store ptr %3, ptr %9, align 8
  store ptr %4, ptr %10, align 8
  call void @llvm.lifetime.start.p0(i64 8, ptr %11) #15
  call void @llvm.lifetime.start.p0(i64 8, ptr %12) #15
  store i64 1, ptr %12, align 8
  call void @llvm.lifetime.start.p0(i64 8, ptr %13) #15
  store i64 24, ptr %13, align 8
  call void @llvm.lifetime.start.p0(i64 8, ptr %14) #15
  %16 = load i64, ptr %13, align 8
  %17 = icmp eq i64 %16, 1
  br i1 %17, label %18, label %21

18:                                               ; preds = %5
  %19 = load i64, ptr %12, align 8
  %20 = call noalias ptr @g_malloc(i64 noundef %19) #20
  store ptr %20, ptr %14, align 8
  br label %42

21:                                               ; preds = %5
  %22 = load i64, ptr %12, align 8
  %23 = call i1 @llvm.is.constant.i64(i64 %22)
  br i1 %23, label %24, label %37

24:                                               ; preds = %21
  %25 = load i64, ptr %13, align 8
  %26 = icmp eq i64 %25, 0
  br i1 %26, label %32, label %27

27:                                               ; preds = %24
  %28 = load i64, ptr %12, align 8
  %29 = load i64, ptr %13, align 8
  %30 = udiv i64 -1, %29
  %31 = icmp ule i64 %28, %30
  br i1 %31, label %32, label %37

32:                                               ; preds = %27, %24
  %33 = load i64, ptr %12, align 8
  %34 = load i64, ptr %13, align 8
  %35 = mul i64 %33, %34
  %36 = call noalias ptr @g_malloc(i64 noundef %35) #20
  store ptr %36, ptr %14, align 8
  br label %41

37:                                               ; preds = %27, %21
  %38 = load i64, ptr %12, align 8
  %39 = load i64, ptr %13, align 8
  %40 = call noalias ptr @g_malloc_n(i64 noundef %38, i64 noundef %39) #21
  store ptr %40, ptr %14, align 8
  br label %41

41:                                               ; preds = %37, %32
  br label %42

42:                                               ; preds = %41, %18
  %43 = load ptr, ptr %14, align 8
  store ptr %43, ptr %15, align 8
  call void @llvm.lifetime.end.p0(i64 8, ptr %14) #15
  call void @llvm.lifetime.end.p0(i64 8, ptr %13) #15
  call void @llvm.lifetime.end.p0(i64 8, ptr %12) #15
  %44 = load ptr, ptr %15, align 8
  store ptr %44, ptr %11, align 8
  %45 = load ptr, ptr %6, align 8
  %46 = call noalias ptr @g_strdup(ptr noundef %45)
  %47 = load ptr, ptr %11, align 8
  %48 = getelementptr inbounds nuw %struct.dissector_delete_item, ptr %47, i32 0, i32 0
  store ptr %46, ptr %48, align 8
  %49 = load i32, ptr %7, align 4
  %50 = load ptr, ptr %11, align 8
  %51 = getelementptr inbounds nuw %struct.dissector_delete_item, ptr %50, i32 0, i32 1
  store i32 %49, ptr %51, align 8
  %52 = load i32, ptr %7, align 4
  switch i32 %52, label %67 [
    i32 4, label %53
    i32 5, label %53
    i32 6, label %53
    i32 7, label %53
    i32 0, label %59
    i32 26, label %62
    i32 27, label %62
    i32 28, label %62
    i32 43, label %62
    i32 45, label %62
  ]

53:                                               ; preds = %42, %42, %42, %42
  %54 = load ptr, ptr %8, align 8
  %55 = ptrtoint ptr %54 to i64
  %56 = trunc i64 %55 to i32
  %57 = load ptr, ptr %11, align 8
  %58 = getelementptr inbounds nuw %struct.dissector_delete_item, ptr %57, i32 0, i32 2
  store i32 %56, ptr %58, align 8
  br label %68

59:                                               ; preds = %42
  %60 = load ptr, ptr %11, align 8
  %61 = getelementptr inbounds nuw %struct.dissector_delete_item, ptr %60, i32 0, i32 2
  store i32 0, ptr %61, align 8
  br label %68

62:                                               ; preds = %42, %42, %42, %42, %42
  %63 = load ptr, ptr %8, align 8
  %64 = call noalias ptr @g_strdup(ptr noundef %63)
  %65 = load ptr, ptr %11, align 8
  %66 = getelementptr inbounds nuw %struct.dissector_delete_item, ptr %65, i32 0, i32 2
  store ptr %64, ptr %66, align 8
  br label %68

67:                                               ; preds = %42
  call void (ptr, i32, ptr, i64, ptr, ptr, ...) @ws_log_fatal_full(ptr noundef @.str, i32 noundef 7, ptr noundef @.str.7, i64 noundef 484, ptr noundef @__func__.decode_build_reset_list, ptr noundef @.str.8) #17
  unreachable

68:                                               ; preds = %62, %59, %53
  %69 = load ptr, ptr @dissector_reset_list, align 8
  %70 = load ptr, ptr %11, align 8
  %71 = call ptr @g_slist_prepend(ptr noundef %69, ptr noundef %70)
  store ptr %71, ptr @dissector_reset_list, align 8
  call void @llvm.lifetime.end.p0(i64 8, ptr %11) #15
  ret void
}