; Function Attrs: null_pointer_is_valid sspstrong uwtable
define void @decode_build_reset_list(ptr noundef %0, i32 noundef %1, ptr noundef %2, ptr readnone captures(none) %3, ptr readnone captures(none) %4) #0 {
  %6 = tail call noalias dereferenceable_or_null(24) ptr @g_malloc(i64 noundef 24) #18
  %7 = tail call noalias ptr @g_strdup(ptr noundef %0)
  store ptr %7, ptr %6, align 8
  %8 = getelementptr inbounds nuw i8, ptr %6, i64 8
  store i32 %1, ptr %8, align 8
  switch i32 %1, label %18 [
    i32 4, label %9
    i32 5, label %9
    i32 6, label %9
    i32 7, label %9
    i32 0, label %13
    i32 26, label %15
    i32 27, label %15
    i32 28, label %15
    i32 43, label %15
    i32 45, label %15
  ]

9:                                                ; preds = %5, %5, %5, %5
  %10 = ptrtoint ptr %2 to i64
  %11 = trunc i64 %10 to i32
  %12 = getelementptr inbounds nuw i8, ptr %6, i64 16
  store i32 %11, ptr %12, align 8
  br label %19

13:                                               ; preds = %5
  %14 = getelementptr inbounds nuw i8, ptr %6, i64 16
  store i32 0, ptr %14, align 8
  br label %19

15:                                               ; preds = %5, %5, %5, %5, %5
  %16 = tail call noalias ptr @g_strdup(ptr noundef %2)
  %17 = getelementptr inbounds nuw i8, ptr %6, i64 16
  store ptr %16, ptr %17, align 8
  br label %19

18:                                               ; preds = %5
  tail call void (ptr, i32, ptr, i64, ptr, ptr, ...) @ws_log_fatal_full(ptr noundef nonnull @.str, i32 noundef 7, ptr noundef nonnull @.str.7, i64 noundef 484, ptr noundef nonnull @__func__.decode_build_reset_list, ptr noundef nonnull @.str.8) #16
  unreachable

19:                                               ; preds = %15, %13, %9
  %20 = load ptr, ptr @dissector_reset_list, align 8
  %21 = tail call ptr @g_slist_prepend(ptr noundef %20, ptr noundef %6)
  store ptr %21, ptr @dissector_reset_list, align 8
  ret void
}